target datalayout = "e-m:e-p270:32:32-p271:32:32-p272:64:64-i64:64-i128:128-f80:128-n8:16:32:64-S128"
target triple = "x86_64-pc-linux-gnu"

%struct.dt_lib_tagging_t = type { [1024 x i8], ptr, ptr, ptr, ptr, ptr, ptr, ptr, ptr, ptr, ptr, ptr, ptr, ptr, ptr, ptr, ptr, ptr, ptr, ptr, ptr, ptr, i32, i32, i32, i32, i32, ptr, ptr, %struct.anon, i32 }
%struct.anon = type { ptr, ptr, ptr, i32, i32, i32, i32, i32 }
%struct._GtkTreeIter = type { i32, ptr, ptr, ptr }

; Function Attrs: nounwind uwtable
define internal void @_attach_selected_tag(ptr noundef %0, ptr noundef %1) #0 {
  %3 = alloca ptr, align 8
  %4 = alloca ptr, align 8
  %5 = alloca %struct._GtkTreeIter, align 8
  %6 = alloca ptr, align 8
  %7 = alloca ptr, align 8
  %8 = alloca i32, align 4
  %9 = alloca i32, align 4
  %10 = alloca i32, align 4
  %11 = alloca %struct._GtkTreeIter, align 8
  %12 = alloca ptr, align 8
  store ptr %0, ptr %3, align 8, !tbaa !6
  store ptr %1, ptr %4, align 8, !tbaa !19
  call void @llvm.lifetime.start.p0(i64 32, ptr %5) #11
  call void @llvm.lifetime.start.p0(i64 8, ptr %6) #11
  store ptr null, ptr %6, align 8, !tbaa !36
  call void @llvm.lifetime.start.p0(i64 8, ptr %7) #11
  %13 = load ptr, ptr %4, align 8, !tbaa !19
  %14 = getelementptr inbounds nuw %struct.dt_lib_tagging_t, ptr %13, i32 0, i32 4
  %15 = load ptr, ptr %14, align 8, !tbaa !40
  %16 = call ptr @gtk_tree_view_get_selection(ptr noundef %15)
  store ptr %16, ptr %7, align 8, !tbaa !59
  %17 = load ptr, ptr %7, align 8, !tbaa !59
  %18 = call i32 @gtk_tree_selection_get_selected(ptr noundef %17, ptr noundef %6, ptr noundef %5)
  %19 = icmp ne i32 %18, 0
  br i1 %19, label %25, label %20

20:                                               ; preds = %2
  %21 = load ptr, ptr %6, align 8, !tbaa !36
  %22 = call i32 @gtk_tree_model_get_iter_first(ptr noundef %21, ptr noundef %5)
  %23 = icmp ne i32 %22, 0
  br i1 %23, label %25, label %24

24:                                               ; preds = %20
  store i32 1, ptr %8, align 4
  br label %82

25:                                               ; preds = %20, %2
  call void @llvm.lifetime.start.p0(i64 4, ptr %9) #11
  %26 = load ptr, ptr %6, align 8, !tbaa !36
  call void (ptr, ptr, ...) @gtk_tree_model_get(ptr noundef %26, ptr noundef %5, i32 noundef 1, ptr noundef %9, i32 noundef -1)
  %27 = load i32, ptr %9, align 4, !tbaa !31
  %28 = icmp ule i32 %27, 0
  br i1 %28, label %29, label %30

29:                                               ; preds = %25
  store i32 1, ptr %8, align 4
  br label %81

30:                                               ; preds = %25
  call void (...) @dt_gui_cursor_set_busy()
  %31 = load i32, ptr %9, align 4, !tbaa !31
  %32 = call i32 @dt_tag_attach(i32 noundef %31, i32 noundef -1, i32 noundef 1, i32 noundef 1)
  %33 = icmp ne i32 %32, 0
  br i1 %33, label %34, label %80

34:                                               ; preds = %30
  %35 = load i32, ptr %9, align 4, !tbaa !31
  %36 = call ptr @dt_tag_get_name(i32 noundef %35)
  %37 = load ptr, ptr %4, align 8, !tbaa !19
  call void @_save_last_tag_used(ptr noundef %36, ptr noundef %37)
  %38 = load ptr, ptr %3, align 8, !tbaa !6
  call void @_init_treeview(ptr noundef %38, i32 noundef 0)
  %39 = load ptr, ptr %4, align 8, !tbaa !19
  %40 = getelementptr inbounds nuw %struct.dt_lib_tagging_t, ptr %39, i32 0, i32 22
  %41 = load i32, ptr %40, align 8, !tbaa !38
  %42 = icmp ne i32 %41, 0
  br i1 %42, label %48, label %43

43:                                               ; preds = %34
  %44 = load ptr, ptr %4, align 8, !tbaa !19
  %45 = getelementptr inbounds nuw %struct.dt_lib_tagging_t, ptr %44, i32 0, i32 23
  %46 = load i32, ptr %45, align 4, !tbaa !39
  %47 = icmp ne i32 %46, 0
  br i1 %47, label %76, label %48

48:                                               ; preds = %43, %34
  call void @llvm.lifetime.start.p0(i64 4, ptr %10) #11
  %49 = load i32, ptr %9, align 4, !tbaa !31
  %50 = call i32 @dt_tag_images_count(i32 noundef %49)
  store i32 %50, ptr %10, align 4, !tbaa !31
  call void @llvm.lifetime.start.p0(i64 32, ptr %11) #11
  call void @llvm.lifetime.start.p0(i64 8, ptr %12) #11
  %51 = load ptr, ptr %6, align 8, !tbaa !36
  %52 = call i64 @gtk_tree_model_filter_get_type() #12
  %53 = call ptr @g_type_check_instance_cast(ptr noundef %51, i64 noundef %52)
  %54 = call ptr @gtk_tree_model_filter_get_model(ptr noundef %53)
  store ptr %54, ptr %12, align 8, !tbaa !36
  %55 = load ptr, ptr %6, align 8, !tbaa !36
  %56 = call i64 @gtk_tree_model_filter_get_type() #12
  %57 = call ptr @g_type_check_instance_cast(ptr noundef %55, i64 noundef %56)
  call void @gtk_tree_model_filter_convert_iter_to_child_iter(ptr noundef %57, ptr noundef %11, ptr noundef %5)
  %58 = load ptr, ptr %4, align 8, !tbaa !19
  %59 = getelementptr inbounds nuw %struct.dt_lib_tagging_t, ptr %58, i32 0, i32 22
  %60 = load i32, ptr %59, align 8, !tbaa !38
  %61 = icmp ne i32 %60, 0
  br i1 %61, label %62, label %70

62:                                               ; preds = %48
  %63 = load ptr, ptr %12, align 8, !tbaa !36
  %64 = call i64 @gtk_tree_store_get_type() #12
  %65 = call ptr @g_type_check_instance_cast(ptr noundef %63, i64 noundef %64)
  %66 = load i32, ptr %10, align 4, !tbaa !31
  call void (ptr, ptr, ...) @gtk_tree_store_set(ptr noundef %65, ptr noundef %11, i32 noundef 4, i32 noundef %66, i32 noundef 5, i32 noundef 2, i32 noundef -1)
  %67 = load ptr, ptr %12, align 8, !tbaa !36
  %68 = call i64 @gtk_tree_model_get_type() #12
  %69 = call ptr @g_type_check_instance_cast(ptr noundef %67, i64 noundef %68)
  call void @_propagate_sel_to_parents(ptr noundef %69, ptr noundef %11)
  br label %75

70:                                               ; preds = %48
  %71 = load ptr, ptr %12, align 8, !tbaa !36
  %72 = call i64 @gtk_list_store_get_type() #12
  %73 = call ptr @g_type_check_instance_cast(ptr noundef %71, i64 noundef %72)
  %74 = load i32, ptr %10, align 4, !tbaa !31
  call void (ptr, ptr, ...) @gtk_list_store_set(ptr noundef %73, ptr noundef %11, i32 noundef 4, i32 noundef %74, i32 noundef 5, i32 noundef 2, i32 noundef -1)
  br label %75

75:                                               ; preds = %70, %62
  call void @llvm.lifetime.end.p0(i64 8, ptr %12) #11
  call void @llvm.lifetime.end.p0(i64 32, ptr %11) #11
  call void @llvm.lifetime.end.p0(i64 4, ptr %10) #11
  br label %78

76:                                               ; preds = %43
  %77 = load ptr, ptr %3, align 8, !tbaa !6
  call void @_init_treeview(ptr noundef %77, i32 noundef 1)
  br label %78

78:                                               ; preds = %76, %75
  %79 = load ptr, ptr %3, align 8, !tbaa !6
  call void @_raise_signal_tag_changed(ptr noundef %79)
  call void @dt_image_synch_xmp(i32 noundef -1)
  br label %80

80:                                               ; preds = %78, %30
  call void (...) @dt_gui_cursor_clear_busy()
  store i32 0, ptr %8, align 4
  br label %81

81:                                               ; preds = %80, %29
  call void @llvm.lifetime.end.p0(i64 4, ptr %9) #11
  br label %82

82:                                               ; preds = %81, %24
  call void @llvm.lifetime.end.p0(i64 8, ptr %7) #11
  call void @llvm.lifetime.end.p0(i64 8, ptr %6) #11
  call void @llvm.lifetime.end.p0(i64 32, ptr %5) #11
  %83 = load i32, ptr %8, align 4
  switch i32 %83, label %85 [
    i32 0, label %84
    i32 1, label %84
  ]

84:                                               ; preds = %82, %82
  ret void

85:                                               ; preds = %82
  unreachable
}