; Function Attrs: nounwind uwtable
define internal fastcc void @_attach_selected_tag(ptr noundef %0, ptr noundef captures(none) %1) unnamed_addr #1 {
  %3 = alloca %struct._GtkTreeIter, align 8
  %4 = alloca ptr, align 8
  %5 = alloca i32, align 4
  %6 = alloca %struct._GtkTreeIter, align 8
  call void @llvm.lifetime.start.p0(i64 32, ptr nonnull %3) #16
  call void @llvm.lifetime.start.p0(i64 8, ptr nonnull %4) #16
  store ptr null, ptr %4, align 8, !tbaa !29
  %7 = getelementptr inbounds nuw i8, ptr %1, i64 1048
  %8 = load ptr, ptr %7, align 8, !tbaa !27
  %9 = tail call ptr @gtk_tree_view_get_selection(ptr noundef %8) #16
  %10 = call i32 @gtk_tree_selection_get_selected(ptr noundef %9, ptr noundef nonnull %4, ptr noundef nonnull %3) #16
  %.not = icmp eq i32 %10, 0
  br i1 %.not, label %11, label %14

11:                                               ; preds = %2
  %12 = load ptr, ptr %4, align 8, !tbaa !29
  %13 = call i32 @gtk_tree_model_get_iter_first(ptr noundef %12, ptr noundef nonnull %3) #16
  %.not13 = icmp eq i32 %13, 0
  br i1 %.not13, label %52, label %14

14:                                               ; preds = %11, %2
  call void @llvm.lifetime.start.p0(i64 4, ptr nonnull %5) #16
  %15 = load ptr, ptr %4, align 8, !tbaa !29
  call void (ptr, ptr, ...) @gtk_tree_model_get(ptr noundef %15, ptr noundef nonnull %3, i32 noundef 1, ptr noundef nonnull %5, i32 noundef -1) #16
  %16 = load i32, ptr %5, align 4, !tbaa !46
  %17 = icmp eq i32 %16, 0
  br i1 %17, label %51, label %18

18:                                               ; preds = %14
  call void (...) @dt_gui_cursor_set_busy() #16
  %19 = load i32, ptr %5, align 4, !tbaa !46
  %20 = call i32 @dt_tag_attach(i32 noundef %19, i32 noundef -1, i32 noundef 1, i32 noundef 1) #16
  %.not14 = icmp eq i32 %20, 0
  br i1 %.not14, label %50, label %21

21:                                               ; preds = %18
  %22 = load i32, ptr %5, align 4, !tbaa !46
  %23 = call ptr @dt_tag_get_name(i32 noundef %22) #16
  call fastcc void @_save_last_tag_used(ptr noundef %23, ptr noundef nonnull %1)
  call fastcc void @_init_treeview(ptr noundef %0, i32 noundef 0)
  %24 = getelementptr inbounds nuw i8, ptr %1, i64 1192
  %25 = load i32, ptr %24, align 8, !tbaa !36
  %.not15 = icmp eq i32 %25, 0
  br i1 %.not15, label %26, label %29

26:                                               ; preds = %21
  %27 = getelementptr inbounds nuw i8, ptr %1, i64 1196
  %28 = load i32, ptr %27, align 4, !tbaa !37
  %.not16 = icmp eq i32 %28, 0
  br i1 %.not16, label %29, label %48

29:                                               ; preds = %26, %21
  %30 = load i32, ptr %5, align 4, !tbaa !46
  %31 = call i32 @dt_tag_images_count(i32 noundef %30) #16
  call void @llvm.lifetime.start.p0(i64 32, ptr nonnull %6) #16
  %32 = load ptr, ptr %4, align 8, !tbaa !29
  %33 = tail call i64 @gtk_tree_model_filter_get_type() #17
  %34 = call ptr @g_type_check_instance_cast(ptr noundef %32, i64 noundef %33) #16
  %35 = call ptr @gtk_tree_model_filter_get_model(ptr noundef %34) #16
  %36 = load ptr, ptr %4, align 8, !tbaa !29
  %37 = call ptr @g_type_check_instance_cast(ptr noundef %36, i64 noundef %33) #16
  call void @gtk_tree_model_filter_convert_iter_to_child_iter(ptr noundef %37, ptr noundef nonnull %6, ptr noundef nonnull %3) #16
  %38 = load i32, ptr %24, align 8, !tbaa !36
  %.not17 = icmp eq i32 %38, 0
  br i1 %.not17, label %44, label %39

39:                                               ; preds = %29
  %40 = tail call i64 @gtk_tree_store_get_type() #17
  %41 = call ptr @g_type_check_instance_cast(ptr noundef %35, i64 noundef %40) #16
  call void (ptr, ptr, ...) @gtk_tree_store_set(ptr noundef %41, ptr noundef nonnull %6, i32 noundef 4, i32 noundef %31, i32 noundef 5, i32 noundef 2, i32 noundef -1) #16
  %42 = tail call i64 @gtk_tree_model_get_type() #17
  %43 = call ptr @g_type_check_instance_cast(ptr noundef %35, i64 noundef %42) #16
  call fastcc void @_propagate_sel_to_parents(ptr noundef %43, ptr noundef %6)
  br label %47

44:                                               ; preds = %29
  %45 = tail call i64 @gtk_list_store_get_type() #17
  %46 = call ptr @g_type_check_instance_cast(ptr noundef %35, i64 noundef %45) #16
  call void (ptr, ptr, ...) @gtk_list_store_set(ptr noundef %46, ptr noundef nonnull %6, i32 noundef 4, i32 noundef %31, i32 noundef 5, i32 noundef 2, i32 noundef -1) #16
  br label %47

47:                                               ; preds = %44, %39
  call void @llvm.lifetime.end.p0(i64 32, ptr nonnull %6) #16
  br label %49

48:                                               ; preds = %26
  call fastcc void @_init_treeview(ptr noundef %0, i32 noundef 1)
  br label %49

49:                                               ; preds = %48, %47
  call fastcc void @_raise_signal_tag_changed(ptr noundef %0)
  call void @dt_image_synch_xmp(i32 noundef -1) #16
  br label %50

50:                                               ; preds = %49, %18
  call void (...) @dt_gui_cursor_clear_busy() #16
  br label %51

51:                                               ; preds = %14, %50
  call void @llvm.lifetime.end.p0(i64 4, ptr nonnull %5) #16
  br label %52

52:                                               ; preds = %11, %51
  call void @llvm.lifetime.end.p0(i64 8, ptr nonnull %4) #16
  call void @llvm.lifetime.end.p0(i64 32, ptr nonnull %3) #16
  ret void
}